; Function Attrs: mustprogress uwtable
define void @_ZN7rocksdb18SstFileManagerImpl13OnAddFileImplERKNSt7__cxx1112basic_stringIcSt11char_traitsIcESaIcEEEm(ptr noundef nonnull align 8 dereferenceable(856) %0, ptr noundef nonnull align 8 dereferenceable(32) %1, i64 noundef %2) local_unnamed_addr #4 align 2 {
  %4 = getelementptr inbounds nuw i8, ptr %0, i64 120
  %5 = tail call ptr @_ZNSt10_HashtableINSt7__cxx1112basic_stringIcSt11char_traitsIcESaIcEEESt4pairIKS5_mESaIS8_ENSt8__detail10_Select1stESt8equal_toIS5_ESt4hashIS5_ENSA_18_Mod_range_hashingENSA_20_Default_ranged_hashENSA_20_Prime_rehash_policyENSA_17_Hashtable_traitsILb1ELb0ELb1EEEE4findERS7_(ptr noundef nonnull align 8 dereferenceable(56) %4, ptr noundef nonnull align 8 dereferenceable(32) %1)
  %.not = icmp eq ptr %5, null
  br i1 %.not, label %13, label %6

6:                                                ; preds = %3
  %7 = getelementptr inbounds nuw i8, ptr %5, i64 40
  %8 = load i64, ptr %7, align 8, !tbaa !159
  %9 = getelementptr inbounds nuw i8, ptr %0, i64 96
  %10 = load i64, ptr %9, align 8, !tbaa !161
  %11 = sub i64 %2, %8
  %12 = add i64 %11, %10
  store i64 %12, ptr %9, align 8, !tbaa !161
  br label %17

13:                                               ; preds = %3
  %14 = getelementptr inbounds nuw i8, ptr %0, i64 96
  %15 = load i64, ptr %14, align 8, !tbaa !161
  %16 = add i64 %15, %2
  store i64 %16, ptr %14, align 8, !tbaa !161
  br label %17

17:                                               ; preds = %13, %6
  %18 = tail call noundef nonnull align 8 dereferenceable(8) ptr @_ZNSt8__detail9_Map_baseINSt7__cxx1112basic_stringIcSt11char_traitsIcESaIcEEESt4pairIKS6_mESaIS9_ENS_10_Select1stESt8equal_toIS6_ESt4hashIS6_ENS_18_Mod_range_hashingENS_20_Default_ranged_hashENS_20_Prime_rehash_policyENS_17_Hashtable_traitsILb1ELb0ELb1EEELb1EEixERS8_(ptr noundef nonnull align 8 dereferenceable(56) %4, ptr noundef nonnull align 8 dereferenceable(32) %1)
  store i64 %2, ptr %18, align 8, !tbaa !132
  ret void
}